; Function Attrs: mustprogress uwtable
define hidden noundef nonnull align 8 dereferenceable(8) ptr @_ZNK3nla4core9print_bfcERKNS_13factorizationERSo(ptr noundef nonnull align 8 dereferenceable(4736) %0, ptr noundef nonnull readonly align 8 captures(none) dereferenceable(16) %1, ptr noundef nonnull returned align 8 dereferenceable(8) %2) local_unnamed_addr #4 align 2 {
  %4 = tail call noundef nonnull align 8 dereferenceable(8) ptr @_ZSt16__ostream_insertIcSt11char_traitsIcEERSt13basic_ostreamIT_T0_ES6_PKS3_l(ptr noundef nonnull align 8 dereferenceable(8) %2, ptr noundef nonnull @.str.12, i64 noundef 6)
  %5 = load ptr, ptr %1, align 8, !tbaa !300
  %6 = tail call noundef nonnull align 8 dereferenceable(8) ptr @_ZNK3nla4core12print_factorERKNS_6factorERSo(ptr noundef nonnull align 8 dereferenceable(4736) %0, ptr noundef nonnull align 4 dereferenceable(9) %5, ptr noundef nonnull align 8 dereferenceable(8) %2)
  %7 = tail call noundef nonnull align 8 dereferenceable(8) ptr @_ZSt16__ostream_insertIcSt11char_traitsIcEERSt13basic_ostreamIT_T0_ES6_PKS3_l(ptr noundef nonnull align 8 dereferenceable(8) %2, ptr noundef nonnull @.str.13, i64 noundef 6)
  %8 = load ptr, ptr %1, align 8, !tbaa !300
  %9 = getelementptr inbounds nuw i8, ptr %8, i64 12
  %10 = tail call noundef nonnull align 8 dereferenceable(8) ptr @_ZNK3nla4core12print_factorERKNS_6factorERSo(ptr noundef nonnull align 8 dereferenceable(4736) %0, ptr noundef nonnull align 4 dereferenceable(9) %9, ptr noundef nonnull align 8 dereferenceable(8) %2)
  %11 = tail call noundef nonnull align 8 dereferenceable(8) ptr @_ZSt16__ostream_insertIcSt11char_traitsIcEERSt13basic_ostreamIT_T0_ES6_PKS3_l(ptr noundef nonnull align 8 dereferenceable(8) %2, ptr noundef nonnull @.str.14, i64 noundef 1)
  ret ptr %2
}